(dp0
S'ObjectA'
p1
(dp2
S'FireFlower'
p3
I0
sS'BulletBill'
p4
I1
sS'Spiky'
p5
I3
sS'TUBE_SIDE_RIGHT'
p6
I4
sS'SPENT'
p7
I5
sS'FireMario'
p8
I6
sS'BigMario'
p9
I7
sS'TUBE_TOP_RIGHT'
p10
I8
sS'null'
p11
I9
sS'BLOCK'
p12
I10
sS'Shell'
p13
I11
sS'Mushroom'
p14
I12
sS'1'
p15
I13
sS'Mario'
p16
I14
sS'TUBE_TOP_LEFT'
p17
I15
sS'LEFT_UP_GRASS_EDGE'
p18
I16
sS'4'
p19
I17
sS'7'
p20
I18
sS'6'
p21
I19
sS'9'
p22
I20
sS'8'
p23
I21
sS'GROUND'
p24
I29
sS'RIGHT_UP_GRASS_EDGE'
p25
I23
sS'None'
p26
I24
sS'TUBE_SIDE_LEFT'
p27
I25
sS'ROCK'
p28
I26
sS'COIN'
p29
I28
sS'RedKoopa'
p30
I27
sS'LEFT_GRASS_EDGE'
p31
I2
sS'Goomba'
p32
I22
sS'Coin'
p33
I30
sS'16'
p34
I31
sS'Bush'
p35
I32
sS'GreenKoopa'
p36
I33
ssS'ObjectB'
p37
(dp38
g3
I0
sg4
I1
sg5
I3
sg6
I4
sg7
I5
sg8
I6
sg9
I7
sg10
I8
sg11
I9
sg12
I10
sg13
I11
sg14
I12
sg15
I13
sg16
I14
sg17
I15
sg18
I16
sg19
I17
sg20
I18
sg21
I19
sg22
I20
sg23
I21
sg24
I29
sg25
I23
sg26
I24
sg27
I25
sg28
I26
sg29
I28
sg30
I27
sg31
I2
sg32
I22
sg33
I30
sg34
I31
sg35
I32
sg36
I33
ssS'Target'
p39
(dp40
g3
I0
sg4
I1
sg5
I3
sg6
I4
sg7
I5
sg8
I6
sg9
I7
sg10
I8
sg11
I9
sg12
I10
sg13
I11
sg14
I12
sg15
I13
sg16
I14
sg17
I15
sg18
I16
sg19
I17
sg20
I18
sg21
I19
sg22
I20
sg23
I21
sg24
I29
sg25
I23
sg26
I24
sg27
I25
sg28
I26
sg29
I28
sg30
I27
sg31
I2
sg32
I22
sg33
I30
sg34
I31
sg35
I32
sg36
I33
ssS'EffectType'
p41
(dp42
S'None'
p43
I0
sS'VelChange'
p44
I1
sS'Add'
p45
I2
sS'Change'
p46
I3
sS'Delete'
p47
I4
ssS'A2BDir'
p48
(dp49
S'R'
p50
I0
sS'U'
p51
I1
sS'D'
p52
I2
sS'L'
p53
I3
ssS'Source'
p54
(dp55
g3
I0
sg4
I1
sg5
I3
sg6
I4
sg7
I5
sg8
I6
sg9
I7
sg10
I8
sg11
I9
sg12
I10
sg13
I11
sg14
I12
sg15
I13
sg16
I14
sg17
I15
sg18
I16
sg19
I17
sg20
I18
sg21
I19
sg22
I20
sg23
I21
sg24
I29
sg25
I23
sg26
I24
sg27
I25
sg28
I26
sg29
I28
sg30
I27
sg31
I2
sg32
I22
sg33
I30
sg34
I31
sg35
I32
sg36
I33
ssS'VelChange'
p56
(dp57
S'vx'
p58
I0
sS'vy'
p59
I1
sS'None'
p60
I2
ss.