(dp0
S'ObjectA'
p1
(dp2
S'ObjectA'
p3
I0
sS'ObjectB'
p4
I1
sS'FireFlower'
p5
I2
sS'LEFT_GRASS_EDGE'
p6
I29
sS'Spiky'
p7
I3
sS'TUBE_SIDE_RIGHT'
p8
I4
sS'SPENT'
p9
I5
sS'FireMario'
p10
I6
sS'BigMario'
p11
I7
sS'TUBE_TOP_RIGHT'
p12
I8
sS'BLOCK'
p13
I9
sS'COIN'
p14
I27
sS'Mushroom'
p15
I11
sS'Object'
p16
I12
sS'Mario'
p17
I13
sS'TUBE_TOP_LEFT'
p18
I14
sS'LEFT_UP_GRASS_EDGE'
p19
I15
sS'4'
p20
I16
sS'7'
p21
I17
sS'6'
p22
I18
sS'9'
p23
I19
sS'8'
p24
I20
sS'Goomba'
p25
I30
sS'RIGHT_UP_GRASS_EDGE'
p26
I22
sS'None'
p27
I23
sS'Target'
p28
I24
sS'TUBE_SIDE_LEFT'
p29
I25
sS'ROCK'
p30
I26
sS'Shell'
p31
I28
sS'Fireball'
p32
I10
sS'GROUND'
p33
I21
sS'Coin'
p34
I31
sS'Source'
p35
I32
sS'16'
p36
I33
sS'GreenKoopa'
p37
I34
ssS'ObjectB'
p38
(dp39
g3
I0
sg4
I1
sg5
I2
sg6
I29
sg7
I3
sg8
I4
sg9
I5
sg10
I6
sg11
I7
sg12
I8
sg13
I9
sg14
I27
sg15
I11
sg16
I12
sg17
I13
sg18
I14
sg19
I15
sg20
I16
sg21
I17
sg22
I18
sg23
I19
sg24
I20
sg25
I30
sg26
I22
sg27
I23
sg28
I24
sg29
I25
sg30
I26
sg31
I28
sg32
I10
sg33
I21
sg34
I31
sg35
I32
sg36
I33
sg37
I34
ssS'Target'
p40
(dp41
g3
I0
sg4
I1
sg5
I2
sg6
I29
sg7
I3
sg8
I4
sg9
I5
sg10
I6
sg11
I7
sg12
I8
sg13
I9
sg14
I27
sg15
I11
sg16
I12
sg17
I13
sg18
I14
sg19
I15
sg20
I16
sg21
I17
sg22
I18
sg23
I19
sg24
I20
sg25
I30
sg26
I22
sg27
I23
sg28
I24
sg29
I25
sg30
I26
sg31
I28
sg32
I10
sg33
I21
sg34
I31
sg35
I32
sg36
I33
sg37
I34
ssS'EffectType'
p42
(dp43
S'None'
p44
I0
sS'EffectType'
p45
I1
sS'Change'
p46
I2
sS'VelChange'
p47
I3
sS'append'
p48
I4
sS'Delete'
p49
I5
ssS'A2BDir'
p50
(dp51
S'A2BDir'
p52
I0
sS'R'
p53
I1
sS'U'
p54
I2
sS'D'
p55
I3
sS'L'
p56
I4
ssS'Source'
p57
(dp58
g3
I0
sg4
I1
sg5
I2
sg6
I29
sg7
I3
sg8
I4
sg9
I5
sg10
I6
sg11
I7
sg12
I8
sg13
I9
sg14
I27
sg15
I11
sg16
I12
sg17
I13
sg18
I14
sg19
I15
sg20
I16
sg21
I17
sg22
I18
sg23
I19
sg24
I20
sg25
I30
sg26
I22
sg27
I23
sg28
I24
sg29
I25
sg30
I26
sg31
I28
sg32
I10
sg33
I21
sg34
I31
sg35
I32
sg36
I33
sg37
I34
ssS'VelChange'
p59
(dp60
S'vx'
p61
I0
sS'vy'
p62
I1
sS'None'
p63
I2
sS'VelChange'
p64
I3
ss.