(dp0
S'ObjectA'
p1
(dp2
S'TUBE_SIDE_RIGHT'
p3
I0
sS'SPENT'
p4
I1
sS'Bush'
p5
I2
sS'TUBE_TOP_RIGHT'
p6
I3
sS'BLOCK'
p7
I4
sS'Shell'
p8
I5
sS'Mushroom'
p9
I6
sS'Mario'
p10
I7
sS'TUBE_TOP_LEFT'
p11
I8
sS'LEFT_UP_GRASS_EDGE'
p12
I9
sS'4'
p13
I10
sS'7'
p14
I11
sS'ROCK'
p15
I18
sS'9'
p16
I13
sS'Goomba'
p17
I14
sS'RIGHT_UP_GRASS_EDGE'
p18
I15
sS'None'
p19
I16
sS'TUBE_SIDE_LEFT'
p20
I17
sS'6'
p21
I12
sS'RedKoopa'
p22
I19
sS'COIN'
p23
I20
sS'GROUND'
p24
I21
sS'Coin'
p25
I22
sS'16'
p26
I23
sS'BigMario'
p27
I24
sS'GreenKoopa'
p28
I25
ssS'ObjectB'
p29
(dp30
g3
I0
sg4
I1
sg5
I2
sg6
I3
sg7
I4
sg8
I5
sg9
I6
sg10
I7
sg11
I8
sg12
I9
sg13
I10
sg14
I11
sg15
I18
sg16
I13
sg17
I14
sg18
I15
sg19
I16
sg20
I17
sg21
I12
sg22
I19
sg23
I20
sg24
I21
sg25
I22
sg26
I23
sg27
I24
sg28
I25
ssS'Target'
p31
(dp32
g3
I0
sg4
I1
sg5
I2
sg6
I3
sg7
I4
sg8
I5
sg9
I6
sg10
I7
sg11
I8
sg12
I9
sg13
I10
sg14
I11
sg15
I18
sg16
I13
sg17
I14
sg18
I15
sg19
I16
sg20
I17
sg21
I12
sg22
I19
sg23
I20
sg24
I21
sg25
I22
sg26
I23
sg27
I24
sg28
I25
ssS'EffectType'
p33
(dp34
S'None'
p35
I0
sS'VelChange'
p36
I1
sS'Change'
p37
I3
sS'append'
p38
I2
sS'Delete'
p39
I4
ssS'A2BDir'
p40
(dp41
S'R'
p42
I0
sS'U'
p43
I1
sS'D'
p44
I2
sS'L'
p45
I3
ssS'Source'
p46
(dp47
g3
I0
sg4
I1
sg5
I2
sg6
I3
sg7
I4
sg8
I5
sg9
I6
sg10
I7
sg11
I8
sg12
I9
sg13
I10
sg14
I11
sg15
I18
sg16
I13
sg17
I14
sg18
I15
sg19
I16
sg20
I17
sg21
I12
sg22
I19
sg23
I20
sg24
I21
sg25
I22
sg26
I23
sg27
I24
sg28
I25
ssS'VelChange'
p48
(dp49
S'vx'
p50
I0
sS'vy'
p51
I1
sS'None'
p52
I2
ss.