(dp0
S'ObjectA'
p1
(dp2
S'RIGHT_UP_GRASS_EDGE'
p3
I27
sS'RIGHT_GRASS_EDGE'
p4
I2
sS'BulletBill'
p5
I3
sS'LEFT_GRASS_EDGE'
p6
I38
sS'Spiky'
p7
I4
sS'TUBE_SIDE_RIGHT'
p8
I5
sS'SPENT'
p9
I6
sS'FireMario'
p10
I7
sS'BigMario'
p11
I8
sS'TUBE_TOP_RIGHT'
p12
I9
sS'null'
p13
I10
sS'HILL_TOP_RIGHT_IN'
p14
I11
sS'BLOCK'
p15
I12
sS'Shell'
p16
I13
sS'Mushroom'
p17
I14
sS'0'
p18
I15
sS'1'
p19
I16
sS'Mario'
p20
I17
sS'3'
p21
I18
sS'TUBE_TOP_LEFT'
p22
I19
sS'LEFT_UP_GRASS_EDGE'
p23
I20
sS'4'
p24
I21
sS'7'
p25
I22
sS'6'
p26
I23
sS'9'
p27
I24
sS'8'
p28
I25
sS'GROUND'
p29
I40
sS'HILL_TOP_RIGHT'
p30
I0
sS'None'
p31
I28
sS'HILL_TOP'
p32
I29
sS'HILL_FILL'
p33
I30
sS'TUBE_SIDE_LEFT'
p34
I31
sS'ROCK'
p35
I32
sS'HILL_LEFT'
p36
I33
sS'HILL_RIGHT'
p37
I34
sS'QBLOCK'
p38
I35
sS'RedKoopa'
p39
I36
sS'2'
p40
I37
sS'Fireball'
p41
I1
sS'FireFlower'
p42
I39
sS'Goomba'
p43
I26
sS'Coin'
p44
I41
sS'16'
p45
I42
sS'COIN'
p46
I43
sS'Bush'
p47
I44
sS'HILL_TOP_LEFT'
p48
I45
sS'GreenKoopa'
p49
I46
sS'HILL_TOP_LEFT_IN'
p50
I47
ssS'ObjectB'
p51
(dp52
g3
I27
sg4
I2
sg5
I3
sg6
I38
sg7
I4
sg8
I5
sg9
I6
sg10
I7
sg11
I8
sg12
I9
sg13
I10
sg14
I11
sg15
I12
sg16
I13
sg17
I14
sg18
I15
sg19
I16
sg20
I17
sg21
I18
sg22
I19
sg23
I20
sg24
I21
sg25
I22
sg26
I23
sg27
I24
sg28
I25
sg29
I40
sg30
I0
sg31
I28
sg32
I29
sg33
I30
sg34
I31
sg35
I32
sg36
I33
sg37
I34
sg38
I35
sg39
I36
sg40
I37
sg41
I1
sg42
I39
sg43
I26
sg44
I41
sg45
I42
sg46
I43
sg47
I44
sg48
I45
sg49
I46
sg50
I47
ssS'Target'
p53
(dp54
g3
I27
sg4
I2
sg5
I3
sg6
I38
sg7
I4
sg8
I5
sg9
I6
sg10
I7
sg11
I8
sg12
I9
sg13
I10
sg14
I11
sg15
I12
sg16
I13
sg17
I14
sg18
I15
sg19
I16
sg20
I17
sg21
I18
sg22
I19
sg23
I20
sg24
I21
sg25
I22
sg26
I23
sg27
I24
sg28
I25
sg29
I40
sg30
I0
sg31
I28
sg32
I29
sg33
I30
sg34
I31
sg35
I32
sg36
I33
sg37
I34
sg38
I35
sg39
I36
sg40
I37
sg41
I1
sg42
I39
sg43
I26
sg44
I41
sg45
I42
sg46
I43
sg47
I44
sg48
I45
sg49
I46
sg50
I47
ssS'EffectType'
p55
(dp56
S'None'
p57
I0
sS'VelChange'
p58
I1
sS'Add'
p59
I2
sS'Change'
p60
I3
sS'Delete'
p61
I4
ssS'A2BDir'
p62
(dp63
S'R'
p64
I0
sS'U'
p65
I1
sS'D'
p66
I2
sS'L'
p67
I3
ssS'Source'
p68
(dp69
g3
I27
sg4
I2
sg5
I3
sg6
I38
sg7
I4
sg8
I5
sg9
I6
sg10
I7
sg11
I8
sg12
I9
sg13
I10
sg14
I11
sg15
I12
sg16
I13
sg17
I14
sg18
I15
sg19
I16
sg20
I17
sg21
I18
sg22
I19
sg23
I20
sg24
I21
sg25
I22
sg26
I23
sg27
I24
sg28
I25
sg29
I40
sg30
I0
sg31
I28
sg32
I29
sg33
I30
sg34
I31
sg35
I32
sg36
I33
sg37
I34
sg38
I35
sg39
I36
sg40
I37
sg41
I1
sg42
I39
sg43
I26
sg44
I41
sg45
I42
sg46
I43
sg47
I44
sg48
I45
sg49
I46
sg50
I47
ssS'VelChange'
p70
(dp71
S'vx'
p72
I0
sS'vy'
p73
I1
sS'None'
p74
I2
ss.