(dp0
S'ObjectA'
p1
(dp2
S'RIGHT_UP_GRASS_EDGE'
p3
I26
sS'RIGHT_GRASS_EDGE'
p4
I2
sS'LEFT_GRASS_EDGE'
p5
I37
sS'Spiky'
p6
I3
sS'TUBE_SIDE_RIGHT'
p7
I4
sS'SPENT'
p8
I5
sS'FireMario'
p9
I6
sS'BigMario'
p10
I7
sS'TUBE_TOP_RIGHT'
p11
I8
sS'null'
p12
I9
sS'HILL_TOP_RIGHT_IN'
p13
I10
sS'BLOCK'
p14
I11
sS'COIN'
p15
I12
sS'Mushroom'
p16
I13
sS'0'
p17
I14
sS'1'
p18
I15
sS'Mario'
p19
I16
sS'3'
p20
I17
sS'TUBE_TOP_LEFT'
p21
I18
sS'LEFT_UP_GRASS_EDGE'
p22
I19
sS'4'
p23
I20
sS'7'
p24
I21
sS'6'
p25
I22
sS'9'
p26
I23
sS'8'
p27
I24
sS'Goomba'
p28
I39
sS'HILL_TOP_RIGHT'
p29
I0
sS'None'
p30
I27
sS'HILL_TOP'
p31
I28
sS'HILL_FILL'
p32
I29
sS'TUBE_SIDE_LEFT'
p33
I30
sS'ROCK'
p34
I31
sS'HILL_LEFT'
p35
I32
sS'HILL_RIGHT'
p36
I33
sS'QBLOCK'
p37
I34
sS'Shell'
p38
I35
sS'2'
p39
I36
sS'Fireball'
p40
I1
sS'FireFlower'
p41
I38
sS'GROUND'
p42
I25
sS'Coin'
p43
I40
sS'16'
p44
I41
sS'HILL_TOP_LEFT'
p45
I42
sS'GreenKoopa'
p46
I43
sS'HILL_TOP_LEFT_IN'
p47
I44
ssS'ObjectB'
p48
(dp49
g3
I26
sg4
I2
sg5
I37
sg6
I3
sg7
I4
sg8
I5
sg9
I6
sg10
I7
sg11
I8
sg12
I9
sg13
I10
sg14
I11
sg15
I12
sg16
I13
sg17
I14
sg18
I15
sg19
I16
sg20
I17
sg21
I18
sg22
I19
sg23
I20
sg24
I21
sg25
I22
sg26
I23
sg27
I24
sg28
I39
sg29
I0
sg30
I27
sg31
I28
sg32
I29
sg33
I30
sg34
I31
sg35
I32
sg36
I33
sg37
I34
sg38
I35
sg39
I36
sg40
I1
sg41
I38
sg42
I25
sg43
I40
sg44
I41
sg45
I42
sg46
I43
sg47
I44
ssS'Target'
p50
(dp51
g3
I26
sg4
I2
sg5
I37
sg6
I3
sg7
I4
sg8
I5
sg9
I6
sg10
I7
sg11
I8
sg12
I9
sg13
I10
sg14
I11
sg15
I12
sg16
I13
sg17
I14
sg18
I15
sg19
I16
sg20
I17
sg21
I18
sg22
I19
sg23
I20
sg24
I21
sg25
I22
sg26
I23
sg27
I24
sg28
I39
sg29
I0
sg30
I27
sg31
I28
sg32
I29
sg33
I30
sg34
I31
sg35
I32
sg36
I33
sg37
I34
sg38
I35
sg39
I36
sg40
I1
sg41
I38
sg42
I25
sg43
I40
sg44
I41
sg45
I42
sg46
I43
sg47
I44
ssS'EffectType'
p52
(dp53
S'None'
p54
I0
sS'VelChange'
p55
I1
sS'Change'
p56
I3
sS'append'
p57
I2
sS'Delete'
p58
I4
ssS'A2BDir'
p59
(dp60
S'R'
p61
I0
sS'U'
p62
I1
sS'D'
p63
I2
sS'L'
p64
I3
ssS'Source'
p65
(dp66
g3
I26
sg4
I2
sg5
I37
sg6
I3
sg7
I4
sg8
I5
sg9
I6
sg10
I7
sg11
I8
sg12
I9
sg13
I10
sg14
I11
sg15
I12
sg16
I13
sg17
I14
sg18
I15
sg19
I16
sg20
I17
sg21
I18
sg22
I19
sg23
I20
sg24
I21
sg25
I22
sg26
I23
sg27
I24
sg28
I39
sg29
I0
sg30
I27
sg31
I28
sg32
I29
sg33
I30
sg34
I31
sg35
I32
sg36
I33
sg37
I34
sg38
I35
sg39
I36
sg40
I1
sg41
I38
sg42
I25
sg43
I40
sg44
I41
sg45
I42
sg46
I43
sg47
I44
ssS'VelChange'
p67
(dp68
S'vx'
p69
I0
sS'vy'
p70
I1
sS'None'
p71
I2
ss.