(dp0
S'ObjectA'
p1
(dp2
S'HILL_TOP_RIGHT'
p3
I27
sS'Fireball'
p4
I38
sS'RIGHT_GRASS_EDGE'
p5
I1
sS'BulletBill'
p6
I2
sS'Spiky'
p7
I4
sS'TUBE_SIDE_RIGHT'
p8
I5
sS'SPENT'
p9
I6
sS'FireMario'
p10
I7
sS'BigMario'
p11
I8
sS'TUBE_TOP_RIGHT'
p12
I9
sS'null'
p13
I10
sS'HILL_TOP_RIGHT_IN'
p14
I11
sS'BLOCK'
p15
I12
sS'COIN'
p16
I13
sS'Mushroom'
p17
I14
sS'Mario'
p18
I15
sS'1'
p19
I16
sS'0'
p20
I17
sS'3'
p21
I18
sS'2'
p22
I19
sS'LEFT_UP_GRASS_EDGE'
p23
I20
sS'4'
p24
I21
sS'7'
p25
I22
sS'6'
p26
I23
sS'9'
p27
I24
sS'8'
p28
I25
sS'Goomba'
p29
I40
sS'RIGHT_UP_GRASS_EDGE'
p30
I0
sS'None'
p31
I28
sS'HILL_TOP'
p32
I29
sS'HILL_FILL'
p33
I30
sS'TUBE_SIDE_LEFT'
p34
I31
sS'ROCK'
p35
I32
sS'HILL_LEFT'
p36
I33
sS'HILL_RIGHT'
p37
I34
sS'QBLOCK'
p38
I35
sS'Shell'
p39
I36
sS'TUBE_TOP_LEFT'
p40
I37
sS'LEFT_GRASS_EDGE'
p41
I3
sS'FireFlower'
p42
I39
sS'GROUND'
p43
I26
sS'16'
p44
I41
sS'Bush'
p45
I42
sS'HILL_TOP_LEFT'
p46
I43
sS'GreenKoopa'
p47
I44
sS'HILL_TOP_LEFT_IN'
p48
I45
ssS'ObjectB'
p49
(dp50
g3
I27
sg4
I38
sg5
I1
sg6
I2
sg7
I4
sg8
I5
sg9
I6
sg10
I7
sg11
I8
sg12
I9
sg13
I10
sg14
I11
sg15
I12
sg16
I13
sg17
I14
sg18
I15
sg19
I16
sg20
I17
sg21
I18
sg22
I19
sg23
I20
sg24
I21
sg25
I22
sg26
I23
sg27
I24
sg28
I25
sg29
I40
sg30
I0
sg31
I28
sg32
I29
sg33
I30
sg34
I31
sg35
I32
sg36
I33
sg37
I34
sg38
I35
sg39
I36
sg40
I37
sg41
I3
sg42
I39
sg43
I26
sg44
I41
sg45
I42
sg46
I43
sg47
I44
sg48
I45
ssS'Target'
p51
(dp52
g3
I27
sg4
I38
sg5
I1
sg6
I2
sg7
I4
sg8
I5
sg9
I6
sg10
I7
sg11
I8
sg12
I9
sg13
I10
sg14
I11
sg15
I12
sg16
I13
sg17
I14
sg18
I15
sg19
I16
sg20
I17
sg21
I18
sg22
I19
sg23
I20
sg24
I21
sg25
I22
sg26
I23
sg27
I24
sg28
I25
sg29
I40
sg30
I0
sg31
I28
sg32
I29
sg33
I30
sg34
I31
sg35
I32
sg36
I33
sg37
I34
sg38
I35
sg39
I36
sg40
I37
sg41
I3
sg42
I39
sg43
I26
sg44
I41
sg45
I42
sg46
I43
sg47
I44
sg48
I45
ssS'EffectType'
p53
(dp54
S'Add'
p55
I0
sS'VelChange'
p56
I1
sS'Change'
p57
I2
sS'Delete'
p58
I3
ssS'A2BDir'
p59
(dp60
S'R'
p61
I0
sS'U'
p62
I1
sS'L'
p63
I2
sS'D'
p64
I3
ssS'Source'
p65
(dp66
g3
I27
sg4
I38
sg5
I1
sg6
I2
sg7
I4
sg8
I5
sg9
I6
sg10
I7
sg11
I8
sg12
I9
sg13
I10
sg14
I11
sg15
I12
sg16
I13
sg17
I14
sg18
I15
sg19
I16
sg20
I17
sg21
I18
sg22
I19
sg23
I20
sg24
I21
sg25
I22
sg26
I23
sg27
I24
sg28
I25
sg29
I40
sg30
I0
sg31
I28
sg32
I29
sg33
I30
sg34
I31
sg35
I32
sg36
I33
sg37
I34
sg38
I35
sg39
I36
sg40
I37
sg41
I3
sg42
I39
sg43
I26
sg44
I41
sg45
I42
sg46
I43
sg47
I44
sg48
I45
ssS'Which'
p67
(dp68
S'A'
p69
I0
sS'B'
p70
I1
sS'OTHER'
p71
I2
ssS'VelChange'
p72
(dp73
S'vx'
p74
I0
sS'vy'
p75
I1
sS'None'
p76
I2
ss.